; Function Attrs: nofree norecurse nosync nounwind memory(argmem: read) uwtable
define dso_local i64 @MurmurHash64A(ptr noundef readonly captures(address) %0, i32 noundef %1, i32 noundef %2) local_unnamed_addr #0 {
  %4 = zext i32 %2 to i64
  %5 = sext i32 %1 to i64
  %6 = mul i64 %5, -4132994306676758123
  %7 = xor i64 %6, %4
  %8 = and i32 %1, 7
  %9 = and i32 %1, -8
  %10 = sext i32 %9 to i64
  %11 = getelementptr inbounds i8, ptr %0, i64 %10
  %.not39 = icmp eq i32 %9, 0
  br i1 %.not39, label %._crit_edge, label %.lr.ph

.lr.ph:                                           ; preds = %3, %.lr.ph
  %.041 = phi i64 [ %18, %.lr.ph ], [ %7, %3 ]
  %.03840 = phi ptr [ %19, %.lr.ph ], [ %0, %3 ]
  %12 = load i64, ptr %.03840, align 8, !tbaa !5
  %13 = mul i64 %12, -4132994306676758123
  %14 = lshr i64 %13, 47
  %15 = xor i64 %14, %13
  %16 = mul i64 %15, -4132994306676758123
  %17 = xor i64 %16, %.041
  %18 = mul i64 %17, -4132994306676758123
  %19 = getelementptr inbounds nuw i8, ptr %.03840, i64 8
  %.not = icmp eq ptr %19, %11
  br i1 %.not, label %._crit_edge, label %.lr.ph, !llvm.loop !9

._crit_edge:                                      ; preds = %.lr.ph, %3
  %.038.lcssa = phi ptr [ %0, %3 ], [ %11, %.lr.ph ]
  %.0.lcssa = phi i64 [ %7, %3 ], [ %18, %.lr.ph ]
  switch i32 %8, label %default.unreachable44 [
    i32 7, label %20
    i32 6, label %26
    i32 5, label %32
    i32 4, label %38
    i32 3, label %44
    i32 2, label %50
    i32 1, label %56
    i32 0, label %61
  ]

20:                                               ; preds = %._crit_edge
  %21 = getelementptr inbounds nuw i8, ptr %.038.lcssa, i64 6
  %22 = load i8, ptr %21, align 1, !tbaa !11
  %23 = zext i8 %22 to i64
  %24 = shl nuw nsw i64 %23, 48
  %25 = xor i64 %24, %.0.lcssa
  br label %26

26:                                               ; preds = %._crit_edge, %20
  %.2 = phi i64 [ %.0.lcssa, %._crit_edge ], [ %25, %20 ]
  %27 = getelementptr inbounds nuw i8, ptr %.038.lcssa, i64 5
  %28 = load i8, ptr %27, align 1, !tbaa !11
  %29 = zext i8 %28 to i64
  %30 = shl nuw nsw i64 %29, 40
  %31 = xor i64 %30, %.2
  br label %32

32:                                               ; preds = %._crit_edge, %26
  %.3 = phi i64 [ %.0.lcssa, %._crit_edge ], [ %31, %26 ]
  %33 = getelementptr inbounds nuw i8, ptr %.038.lcssa, i64 4
  %34 = load i8, ptr %33, align 1, !tbaa !11
  %35 = zext i8 %34 to i64
  %36 = shl nuw nsw i64 %35, 32
  %37 = xor i64 %36, %.3
  br label %38

38:                                               ; preds = %._crit_edge, %32
  %.4 = phi i64 [ %.0.lcssa, %._crit_edge ], [ %37, %32 ]
  %39 = getelementptr inbounds nuw i8, ptr %.038.lcssa, i64 3
  %40 = load i8, ptr %39, align 1, !tbaa !11
  %41 = zext i8 %40 to i64
  %42 = shl nuw nsw i64 %41, 24
  %43 = xor i64 %42, %.4
  br label %44

44:                                               ; preds = %._crit_edge, %38
  %.5 = phi i64 [ %.0.lcssa, %._crit_edge ], [ %43, %38 ]
  %45 = getelementptr inbounds nuw i8, ptr %.038.lcssa, i64 2
  %46 = load i8, ptr %45, align 1, !tbaa !11
  %47 = zext i8 %46 to i64
  %48 = shl nuw nsw i64 %47, 16
  %49 = xor i64 %48, %.5
  br label %50

50:                                               ; preds = %._crit_edge, %44
  %.6 = phi i64 [ %.0.lcssa, %._crit_edge ], [ %49, %44 ]
  %51 = getelementptr inbounds nuw i8, ptr %.038.lcssa, i64 1
  %52 = load i8, ptr %51, align 1, !tbaa !11
  %53 = zext i8 %52 to i64
  %54 = shl nuw nsw i64 %53, 8
  %55 = xor i64 %54, %.6
  br label %56

56:                                               ; preds = %._crit_edge, %50
  %.7 = phi i64 [ %.0.lcssa, %._crit_edge ], [ %55, %50 ]
  %57 = load i8, ptr %.038.lcssa, align 1, !tbaa !11
  %58 = zext i8 %57 to i64
  %59 = xor i64 %.7, %58
  %60 = mul i64 %59, -4132994306676758123
  br label %61

default.unreachable44:                            ; preds = %._crit_edge
  unreachable

61:                                               ; preds = %._crit_edge, %56
  %.1 = phi i64 [ %.0.lcssa, %._crit_edge ], [ %60, %56 ]
  %62 = lshr i64 %.1, 47
  %63 = xor i64 %62, %.1
  %64 = mul i64 %63, -4132994306676758123
  %65 = lshr i64 %64, 47
  %66 = xor i64 %65, %64
  ret i64 %66
}